; Function Attrs: mustprogress uwtable
define void @_ZN5arrow4util5Mutex7TryLockEv(ptr dead_on_unwind noalias writable sret(%"class.arrow::util::Mutex::Guard") align 8 %0, ptr noundef nonnull align 8 dereferenceable(16) %1) local_unnamed_addr #1 align 2 personality ptr @__gxx_personality_v0 {
  %3 = getelementptr inbounds nuw i8, ptr %1, i64 8
  %4 = load ptr, ptr %3, align 8, !tbaa !11
  %5 = tail call noundef i32 @pthread_mutex_trylock(ptr noundef nonnull align 8 dereferenceable(40) %4) #11
  %.not.i = icmp eq i32 %5, 0
  br i1 %.not.i, label %6, label %7

6:                                                ; preds = %2
  tail call void @_ZN5arrow4util5Mutex5GuardC1EPS1_(ptr noundef nonnull align 8 dereferenceable(16) %0, ptr noundef nonnull %1)
  br label %9

7:                                                ; preds = %2
  store ptr @_ZZN5arrow4util5Mutex5GuardC1EvENUlPS1_E_8__invokeES3_, ptr %0, align 8, !tbaa !3
  %8 = getelementptr inbounds nuw i8, ptr %0, i64 8
  store ptr null, ptr %8, align 8, !tbaa !8
  br label %9

9:                                                ; preds = %7, %6
  ret void
}